
rv64ui-p-lw:     file format elf64-littleriscv


Disassembly of section .text.init:

0000000080000000 <_start>:
    80000000:	04c0006f          	j	8000004c <reset_vector>

0000000080000004 <trap_vector>:
    80000004:	34202f73          	csrr	t5,mcause
    80000008:	00800f93          	li	t6,8
    8000000c:	03ff0a63          	beq	t5,t6,80000040 <write_tohost>
    80000010:	00900f93          	li	t6,9
    80000014:	03ff0663          	beq	t5,t6,80000040 <write_tohost>
    80000018:	00b00f93          	li	t6,11
    8000001c:	03ff0263          	beq	t5,t6,80000040 <write_tohost>
    80000020:	80000f17          	auipc	t5,0x80000
    80000024:	fe0f0f13          	addi	t5,t5,-32 # 0 <_start-0x80000000>
    80000028:	000f0463          	beqz	t5,80000030 <trap_vector+0x2c>
    8000002c:	000f0067          	jr	t5
    80000030:	34202f73          	csrr	t5,mcause
    80000034:	000f5463          	bgez	t5,8000003c <handle_exception>
    80000038:	0040006f          	j	8000003c <handle_exception>

000000008000003c <handle_exception>:
    8000003c:	5391e193          	ori	gp,gp,1337

0000000080000040 <write_tohost>:
    80000040:	00001f17          	auipc	t5,0x1
    80000044:	fc3f2023          	sw	gp,-64(t5) # 80001000 <tohost>
    80000048:	ff9ff06f          	j	80000040 <write_tohost>

000000008000004c <reset_vector>:
    8000004c:	00000093          	li	ra,0
    80000050:	00000113          	li	sp,0
    80000054:	00000193          	li	gp,0
    80000058:	00000213          	li	tp,0
    8000005c:	00000293          	li	t0,0
    80000060:	00000313          	li	t1,0
    80000064:	00000393          	li	t2,0
    80000068:	00000413          	li	s0,0
    8000006c:	00000493          	li	s1,0
    80000070:	00000513          	li	a0,0
    80000074:	00000593          	li	a1,0
    80000078:	00000613          	li	a2,0
    8000007c:	00000693          	li	a3,0
    80000080:	00000713          	li	a4,0
    80000084:	00000793          	li	a5,0
    80000088:	00000813          	li	a6,0
    8000008c:	00000893          	li	a7,0
    80000090:	00000913          	li	s2,0
    80000094:	00000993          	li	s3,0
    80000098:	00000a13          	li	s4,0
    8000009c:	00000a93          	li	s5,0
    800000a0:	00000b13          	li	s6,0
    800000a4:	00000b93          	li	s7,0
    800000a8:	00000c13          	li	s8,0
    800000ac:	00000c93          	li	s9,0
    800000b0:	00000d13          	li	s10,0
    800000b4:	00000d93          	li	s11,0
    800000b8:	00000e13          	li	t3,0
    800000bc:	00000e93          	li	t4,0
    800000c0:	00000f13          	li	t5,0
    800000c4:	00000f93          	li	t6,0
    800000c8:	f1402573          	csrr	a0,mhartid
    800000cc:	00051063          	bnez	a0,800000cc <reset_vector+0x80>
    800000d0:	00000297          	auipc	t0,0x0
    800000d4:	01028293          	addi	t0,t0,16 # 800000e0 <reset_vector+0x94>
    800000d8:	30529073          	csrw	mtvec,t0
    800000dc:	18005073          	csrwi	satp,0
    800000e0:	00000297          	auipc	t0,0x0
    800000e4:	02428293          	addi	t0,t0,36 # 80000104 <reset_vector+0xb8>
    800000e8:	30529073          	csrw	mtvec,t0
    800000ec:	0010029b          	addiw	t0,zero,1
    800000f0:	03529293          	slli	t0,t0,0x35
    800000f4:	fff28293          	addi	t0,t0,-1
    800000f8:	3b029073          	csrw	pmpaddr0,t0
    800000fc:	01f00293          	li	t0,31
    80000100:	3a029073          	csrw	pmpcfg0,t0
    80000104:	30405073          	csrwi	mie,0
    80000108:	00000297          	auipc	t0,0x0
    8000010c:	01428293          	addi	t0,t0,20 # 8000011c <reset_vector+0xd0>
    80000110:	30529073          	csrw	mtvec,t0
    80000114:	30205073          	csrwi	medeleg,0
    80000118:	30305073          	csrwi	mideleg,0
    8000011c:	00000193          	li	gp,0
    80000120:	00000297          	auipc	t0,0x0
    80000124:	ee428293          	addi	t0,t0,-284 # 80000004 <trap_vector>
    80000128:	30529073          	csrw	mtvec,t0
    8000012c:	00100513          	li	a0,1
    80000130:	01f51513          	slli	a0,a0,0x1f
    80000134:	00055c63          	bgez	a0,8000014c <reset_vector+0x100>
    80000138:	0ff0000f          	fence
    8000013c:	00100193          	li	gp,1
    80000140:	05d00893          	li	a7,93
    80000144:	00000513          	li	a0,0
    80000148:	00000073          	ecall
    8000014c:	80000297          	auipc	t0,0x80000
    80000150:	eb428293          	addi	t0,t0,-332 # 0 <_start-0x80000000>
    80000154:	00028a63          	beqz	t0,80000168 <reset_vector+0x11c>
    80000158:	10529073          	csrw	stvec,t0
    8000015c:	0000b2b7          	lui	t0,0xb
    80000160:	1092829b          	addiw	t0,t0,265
    80000164:	30229073          	csrw	medeleg,t0
    80000168:	30005073          	csrwi	mstatus,0
    8000016c:	00000297          	auipc	t0,0x0
    80000170:	01428293          	addi	t0,t0,20 # 80000180 <test_2>
    80000174:	34129073          	csrw	mepc,t0
    80000178:	f1402573          	csrr	a0,mhartid
    8000017c:	30200073          	mret

0000000080000180 <test_2>:
    80000180:	00002097          	auipc	ra,0x2
    80000184:	e8008093          	addi	ra,ra,-384 # 80002000 <begin_signature>
    80000188:	0000a703          	lw	a4,0(ra)
    8000018c:	00ff03b7          	lui	t2,0xff0
    80000190:	0ff3839b          	addiw	t2,t2,255
    80000194:	00200193          	li	gp,2
    80000198:	26771a63          	bne	a4,t2,8000040c <fail>

000000008000019c <test_3>:
    8000019c:	00002097          	auipc	ra,0x2
    800001a0:	e6408093          	addi	ra,ra,-412 # 80002000 <begin_signature>
    800001a4:	0040a703          	lw	a4,4(ra)
    800001a8:	ff0103b7          	lui	t2,0xff010
    800001ac:	f003839b          	addiw	t2,t2,-256
    800001b0:	00300193          	li	gp,3
    800001b4:	24771c63          	bne	a4,t2,8000040c <fail>

00000000800001b8 <test_4>:
    800001b8:	00002097          	auipc	ra,0x2
    800001bc:	e4808093          	addi	ra,ra,-440 # 80002000 <begin_signature>
    800001c0:	0080a703          	lw	a4,8(ra)
    800001c4:	0ff013b7          	lui	t2,0xff01
    800001c8:	ff03839b          	addiw	t2,t2,-16
    800001cc:	00400193          	li	gp,4
    800001d0:	22771e63          	bne	a4,t2,8000040c <fail>

00000000800001d4 <test_5>:
    800001d4:	00002097          	auipc	ra,0x2
    800001d8:	e2c08093          	addi	ra,ra,-468 # 80002000 <begin_signature>
    800001dc:	00c0a703          	lw	a4,12(ra)
    800001e0:	f00ff3b7          	lui	t2,0xf00ff
    800001e4:	00f3839b          	addiw	t2,t2,15
    800001e8:	00500193          	li	gp,5
    800001ec:	22771063          	bne	a4,t2,8000040c <fail>

00000000800001f0 <test_6>:
    800001f0:	00002097          	auipc	ra,0x2
    800001f4:	e1c08093          	addi	ra,ra,-484 # 8000200c <tdat4>
    800001f8:	ff40a703          	lw	a4,-12(ra)
    800001fc:	00ff03b7          	lui	t2,0xff0
    80000200:	0ff3839b          	addiw	t2,t2,255
    80000204:	00600193          	li	gp,6
    80000208:	20771263          	bne	a4,t2,8000040c <fail>

000000008000020c <test_7>:
    8000020c:	00002097          	auipc	ra,0x2
    80000210:	e0008093          	addi	ra,ra,-512 # 8000200c <tdat4>
    80000214:	ff80a703          	lw	a4,-8(ra)
    80000218:	ff0103b7          	lui	t2,0xff010
    8000021c:	f003839b          	addiw	t2,t2,-256
    80000220:	00700193          	li	gp,7
    80000224:	1e771463          	bne	a4,t2,8000040c <fail>

0000000080000228 <test_8>:
    80000228:	00002097          	auipc	ra,0x2
    8000022c:	de408093          	addi	ra,ra,-540 # 8000200c <tdat4>
    80000230:	ffc0a703          	lw	a4,-4(ra)
    80000234:	0ff013b7          	lui	t2,0xff01
    80000238:	ff03839b          	addiw	t2,t2,-16
    8000023c:	00800193          	li	gp,8
    80000240:	1c771663          	bne	a4,t2,8000040c <fail>

0000000080000244 <test_9>:
    80000244:	00002097          	auipc	ra,0x2
    80000248:	dc808093          	addi	ra,ra,-568 # 8000200c <tdat4>
    8000024c:	0000a703          	lw	a4,0(ra)
    80000250:	f00ff3b7          	lui	t2,0xf00ff
    80000254:	00f3839b          	addiw	t2,t2,15
    80000258:	00900193          	li	gp,9
    8000025c:	1a771863          	bne	a4,t2,8000040c <fail>

0000000080000260 <test_10>:
    80000260:	00002097          	auipc	ra,0x2
    80000264:	da008093          	addi	ra,ra,-608 # 80002000 <begin_signature>
    80000268:	fe008093          	addi	ra,ra,-32
    8000026c:	0200a283          	lw	t0,32(ra)
    80000270:	00ff03b7          	lui	t2,0xff0
    80000274:	0ff3839b          	addiw	t2,t2,255
    80000278:	00a00193          	li	gp,10
    8000027c:	18729863          	bne	t0,t2,8000040c <fail>

0000000080000280 <test_11>:
    80000280:	00002097          	auipc	ra,0x2
    80000284:	d8008093          	addi	ra,ra,-640 # 80002000 <begin_signature>
    80000288:	ffd08093          	addi	ra,ra,-3
    8000028c:	0070a283          	lw	t0,7(ra)
    80000290:	ff0103b7          	lui	t2,0xff010
    80000294:	f003839b          	addiw	t2,t2,-256
    80000298:	00b00193          	li	gp,11
    8000029c:	16729863          	bne	t0,t2,8000040c <fail>

00000000800002a0 <test_12>:
    800002a0:	00c00193          	li	gp,12
    800002a4:	00000213          	li	tp,0
    800002a8:	00002097          	auipc	ra,0x2
    800002ac:	d5c08093          	addi	ra,ra,-676 # 80002004 <tdat2>
    800002b0:	0040a703          	lw	a4,4(ra)
    800002b4:	00070313          	mv	t1,a4
    800002b8:	0ff013b7          	lui	t2,0xff01
    800002bc:	ff03839b          	addiw	t2,t2,-16
    800002c0:	14731663          	bne	t1,t2,8000040c <fail>
    800002c4:	00120213          	addi	tp,tp,1 # 1 <_start-0x7fffffff>
    800002c8:	00200293          	li	t0,2
    800002cc:	fc521ee3          	bne	tp,t0,800002a8 <test_12+0x8>

00000000800002d0 <test_13>:
    800002d0:	00d00193          	li	gp,13
    800002d4:	00000213          	li	tp,0
    800002d8:	00002097          	auipc	ra,0x2
    800002dc:	d3008093          	addi	ra,ra,-720 # 80002008 <tdat3>
    800002e0:	0040a703          	lw	a4,4(ra)
    800002e4:	00000013          	nop
    800002e8:	00070313          	mv	t1,a4
    800002ec:	f00ff3b7          	lui	t2,0xf00ff
    800002f0:	00f3839b          	addiw	t2,t2,15
    800002f4:	10731c63          	bne	t1,t2,8000040c <fail>
    800002f8:	00120213          	addi	tp,tp,1 # 1 <_start-0x7fffffff>
    800002fc:	00200293          	li	t0,2
    80000300:	fc521ce3          	bne	tp,t0,800002d8 <test_13+0x8>

0000000080000304 <test_14>:
    80000304:	00e00193          	li	gp,14
    80000308:	00000213          	li	tp,0
    8000030c:	00002097          	auipc	ra,0x2
    80000310:	cf408093          	addi	ra,ra,-780 # 80002000 <begin_signature>
    80000314:	0040a703          	lw	a4,4(ra)
    80000318:	00000013          	nop
    8000031c:	00000013          	nop
    80000320:	00070313          	mv	t1,a4
    80000324:	ff0103b7          	lui	t2,0xff010
    80000328:	f003839b          	addiw	t2,t2,-256
    8000032c:	0e731063          	bne	t1,t2,8000040c <fail>
    80000330:	00120213          	addi	tp,tp,1 # 1 <_start-0x7fffffff>
    80000334:	00200293          	li	t0,2
    80000338:	fc521ae3          	bne	tp,t0,8000030c <test_14+0x8>

000000008000033c <test_15>:
    8000033c:	00f00193          	li	gp,15
    80000340:	00000213          	li	tp,0
    80000344:	00002097          	auipc	ra,0x2
    80000348:	cc008093          	addi	ra,ra,-832 # 80002004 <tdat2>
    8000034c:	0040a703          	lw	a4,4(ra)
    80000350:	0ff013b7          	lui	t2,0xff01
    80000354:	ff03839b          	addiw	t2,t2,-16
    80000358:	0a771a63          	bne	a4,t2,8000040c <fail>
    8000035c:	00120213          	addi	tp,tp,1 # 1 <_start-0x7fffffff>
    80000360:	00200293          	li	t0,2
    80000364:	fe5210e3          	bne	tp,t0,80000344 <test_15+0x8>

0000000080000368 <test_16>:
    80000368:	01000193          	li	gp,16
    8000036c:	00000213          	li	tp,0
    80000370:	00002097          	auipc	ra,0x2
    80000374:	c9808093          	addi	ra,ra,-872 # 80002008 <tdat3>
    80000378:	00000013          	nop
    8000037c:	0040a703          	lw	a4,4(ra)
    80000380:	f00ff3b7          	lui	t2,0xf00ff
    80000384:	00f3839b          	addiw	t2,t2,15
    80000388:	08771263          	bne	a4,t2,8000040c <fail>
    8000038c:	00120213          	addi	tp,tp,1 # 1 <_start-0x7fffffff>
    80000390:	00200293          	li	t0,2
    80000394:	fc521ee3          	bne	tp,t0,80000370 <test_16+0x8>

0000000080000398 <test_17>:
    80000398:	01100193          	li	gp,17
    8000039c:	00000213          	li	tp,0
    800003a0:	00002097          	auipc	ra,0x2
    800003a4:	c6008093          	addi	ra,ra,-928 # 80002000 <begin_signature>
    800003a8:	00000013          	nop
    800003ac:	00000013          	nop
    800003b0:	0040a703          	lw	a4,4(ra)
    800003b4:	ff0103b7          	lui	t2,0xff010
    800003b8:	f003839b          	addiw	t2,t2,-256
    800003bc:	04771863          	bne	a4,t2,8000040c <fail>
    800003c0:	00120213          	addi	tp,tp,1 # 1 <_start-0x7fffffff>
    800003c4:	00200293          	li	t0,2
    800003c8:	fc521ce3          	bne	tp,t0,800003a0 <test_17+0x8>

00000000800003cc <test_18>:
    800003cc:	00002297          	auipc	t0,0x2
    800003d0:	c3428293          	addi	t0,t0,-972 # 80002000 <begin_signature>
    800003d4:	0002a103          	lw	sp,0(t0)
    800003d8:	00200113          	li	sp,2
    800003dc:	00200393          	li	t2,2
    800003e0:	01200193          	li	gp,18
    800003e4:	02711463          	bne	sp,t2,8000040c <fail>

00000000800003e8 <test_19>:
    800003e8:	00002297          	auipc	t0,0x2
    800003ec:	c1828293          	addi	t0,t0,-1000 # 80002000 <begin_signature>
    800003f0:	0002a103          	lw	sp,0(t0)
    800003f4:	00000013          	nop
    800003f8:	00200113          	li	sp,2
    800003fc:	00200393          	li	t2,2
    80000400:	01300193          	li	gp,19
    80000404:	00711463          	bne	sp,t2,8000040c <fail>
    80000408:	02301063          	bne	zero,gp,80000428 <pass>

000000008000040c <fail>:
    8000040c:	0ff0000f          	fence
    80000410:	00018063          	beqz	gp,80000410 <fail+0x4>
    80000414:	00119193          	slli	gp,gp,0x1
    80000418:	0011e193          	ori	gp,gp,1
    8000041c:	05d00893          	li	a7,93
    80000420:	00018513          	mv	a0,gp
    80000424:	00000073          	ecall

0000000080000428 <pass>:
    80000428:	0ff0000f          	fence
    8000042c:	00100193          	li	gp,1
    80000430:	05d00893          	li	a7,93
    80000434:	00000513          	li	a0,0
    80000438:	00000073          	ecall
    8000043c:	c0001073          	unimp
    80000440:	0000                	unimp
    80000442:	0000                	unimp
