
rv64ui-p-sd:     file format elf64-littleriscv


Disassembly of section .text.init:

0000000080000000 <_start>:
    80000000:	04c0006f          	j	8000004c <reset_vector>

0000000080000004 <trap_vector>:
    80000004:	34202f73          	csrr	t5,mcause
    80000008:	00800f93          	li	t6,8
    8000000c:	03ff0a63          	beq	t5,t6,80000040 <write_tohost>
    80000010:	00900f93          	li	t6,9
    80000014:	03ff0663          	beq	t5,t6,80000040 <write_tohost>
    80000018:	00b00f93          	li	t6,11
    8000001c:	03ff0263          	beq	t5,t6,80000040 <write_tohost>
    80000020:	80000f17          	auipc	t5,0x80000
    80000024:	fe0f0f13          	addi	t5,t5,-32 # 0 <_start-0x80000000>
    80000028:	000f0463          	beqz	t5,80000030 <trap_vector+0x2c>
    8000002c:	000f0067          	jr	t5
    80000030:	34202f73          	csrr	t5,mcause
    80000034:	000f5463          	bgez	t5,8000003c <handle_exception>
    80000038:	0040006f          	j	8000003c <handle_exception>

000000008000003c <handle_exception>:
    8000003c:	5391e193          	ori	gp,gp,1337

0000000080000040 <write_tohost>:
    80000040:	00001f17          	auipc	t5,0x1
    80000044:	fc3f2023          	sw	gp,-64(t5) # 80001000 <tohost>
    80000048:	ff9ff06f          	j	80000040 <write_tohost>

000000008000004c <reset_vector>:
    8000004c:	00000093          	li	ra,0
    80000050:	00000113          	li	sp,0
    80000054:	00000193          	li	gp,0
    80000058:	00000213          	li	tp,0
    8000005c:	00000293          	li	t0,0
    80000060:	00000313          	li	t1,0
    80000064:	00000393          	li	t2,0
    80000068:	00000413          	li	s0,0
    8000006c:	00000493          	li	s1,0
    80000070:	00000513          	li	a0,0
    80000074:	00000593          	li	a1,0
    80000078:	00000613          	li	a2,0
    8000007c:	00000693          	li	a3,0
    80000080:	00000713          	li	a4,0
    80000084:	00000793          	li	a5,0
    80000088:	00000813          	li	a6,0
    8000008c:	00000893          	li	a7,0
    80000090:	00000913          	li	s2,0
    80000094:	00000993          	li	s3,0
    80000098:	00000a13          	li	s4,0
    8000009c:	00000a93          	li	s5,0
    800000a0:	00000b13          	li	s6,0
    800000a4:	00000b93          	li	s7,0
    800000a8:	00000c13          	li	s8,0
    800000ac:	00000c93          	li	s9,0
    800000b0:	00000d13          	li	s10,0
    800000b4:	00000d93          	li	s11,0
    800000b8:	00000e13          	li	t3,0
    800000bc:	00000e93          	li	t4,0
    800000c0:	00000f13          	li	t5,0
    800000c4:	00000f93          	li	t6,0
    800000c8:	f1402573          	csrr	a0,mhartid
    800000cc:	00051063          	bnez	a0,800000cc <reset_vector+0x80>
    800000d0:	00000297          	auipc	t0,0x0
    800000d4:	01028293          	addi	t0,t0,16 # 800000e0 <reset_vector+0x94>
    800000d8:	30529073          	csrw	mtvec,t0
    800000dc:	18005073          	csrwi	satp,0
    800000e0:	00000297          	auipc	t0,0x0
    800000e4:	02428293          	addi	t0,t0,36 # 80000104 <reset_vector+0xb8>
    800000e8:	30529073          	csrw	mtvec,t0
    800000ec:	0010029b          	addiw	t0,zero,1
    800000f0:	03529293          	slli	t0,t0,0x35
    800000f4:	fff28293          	addi	t0,t0,-1
    800000f8:	3b029073          	csrw	pmpaddr0,t0
    800000fc:	01f00293          	li	t0,31
    80000100:	3a029073          	csrw	pmpcfg0,t0
    80000104:	30405073          	csrwi	mie,0
    80000108:	00000297          	auipc	t0,0x0
    8000010c:	01428293          	addi	t0,t0,20 # 8000011c <reset_vector+0xd0>
    80000110:	30529073          	csrw	mtvec,t0
    80000114:	30205073          	csrwi	medeleg,0
    80000118:	30305073          	csrwi	mideleg,0
    8000011c:	00000193          	li	gp,0
    80000120:	00000297          	auipc	t0,0x0
    80000124:	ee428293          	addi	t0,t0,-284 # 80000004 <trap_vector>
    80000128:	30529073          	csrw	mtvec,t0
    8000012c:	00100513          	li	a0,1
    80000130:	01f51513          	slli	a0,a0,0x1f
    80000134:	00055c63          	bgez	a0,8000014c <reset_vector+0x100>
    80000138:	0ff0000f          	fence
    8000013c:	00100193          	li	gp,1
    80000140:	05d00893          	li	a7,93
    80000144:	00000513          	li	a0,0
    80000148:	00000073          	ecall
    8000014c:	80000297          	auipc	t0,0x80000
    80000150:	eb428293          	addi	t0,t0,-332 # 0 <_start-0x80000000>
    80000154:	00028a63          	beqz	t0,80000168 <reset_vector+0x11c>
    80000158:	10529073          	csrw	stvec,t0
    8000015c:	0000b2b7          	lui	t0,0xb
    80000160:	1092829b          	addiw	t0,t0,265
    80000164:	30229073          	csrw	medeleg,t0
    80000168:	30005073          	csrwi	mstatus,0
    8000016c:	00000297          	auipc	t0,0x0
    80000170:	01428293          	addi	t0,t0,20 # 80000180 <test_2>
    80000174:	34129073          	csrw	mepc,t0
    80000178:	f1402573          	csrr	a0,mhartid
    8000017c:	30200073          	mret

0000000080000180 <test_2>:
    80000180:	00002097          	auipc	ra,0x2
    80000184:	e8008093          	addi	ra,ra,-384 # 80002000 <begin_signature>
    80000188:	00550137          	lui	sp,0x550
    8000018c:	0551011b          	addiw	sp,sp,85
    80000190:	01011113          	slli	sp,sp,0x10
    80000194:	05510113          	addi	sp,sp,85 # 550055 <_start-0x7faaffab>
    80000198:	01111113          	slli	sp,sp,0x11
    8000019c:	0aa10113          	addi	sp,sp,170
    800001a0:	0020b023          	sd	sp,0(ra)
    800001a4:	0000b703          	ld	a4,0(ra)
    800001a8:	005503b7          	lui	t2,0x550
    800001ac:	0553839b          	addiw	t2,t2,85
    800001b0:	01039393          	slli	t2,t2,0x10
    800001b4:	05538393          	addi	t2,t2,85 # 550055 <_start-0x7faaffab>
    800001b8:	01139393          	slli	t2,t2,0x11
    800001bc:	0aa38393          	addi	t2,t2,170
    800001c0:	00200193          	li	gp,2
    800001c4:	60771063          	bne	a4,t2,800007c4 <fail>

00000000800001c8 <test_3>:
    800001c8:	00002097          	auipc	ra,0x2
    800001cc:	e3808093          	addi	ra,ra,-456 # 80002000 <begin_signature>
    800001d0:	ffd50137          	lui	sp,0xffd50
    800001d4:	0551011b          	addiw	sp,sp,85
    800001d8:	01011113          	slli	sp,sp,0x10
    800001dc:	05510113          	addi	sp,sp,85 # ffffffffffd50055 <_end+0xffffffff7fd4e005>
    800001e0:	00d11113          	slli	sp,sp,0xd
    800001e4:	00b10113          	addi	sp,sp,11
    800001e8:	00c11113          	slli	sp,sp,0xc
    800001ec:	a0010113          	addi	sp,sp,-1536
    800001f0:	0020b423          	sd	sp,8(ra)
    800001f4:	0080b703          	ld	a4,8(ra)
    800001f8:	ffd503b7          	lui	t2,0xffd50
    800001fc:	0553839b          	addiw	t2,t2,85
    80000200:	01039393          	slli	t2,t2,0x10
    80000204:	05538393          	addi	t2,t2,85 # ffffffffffd50055 <_end+0xffffffff7fd4e005>
    80000208:	00d39393          	slli	t2,t2,0xd
    8000020c:	00b38393          	addi	t2,t2,11
    80000210:	00c39393          	slli	t2,t2,0xc
    80000214:	a0038393          	addi	t2,t2,-1536
    80000218:	00300193          	li	gp,3
    8000021c:	5a771463          	bne	a4,t2,800007c4 <fail>

0000000080000220 <test_4>:
    80000220:	00002097          	auipc	ra,0x2
    80000224:	de008093          	addi	ra,ra,-544 # 80002000 <begin_signature>
    80000228:	00550137          	lui	sp,0x550
    8000022c:	0551011b          	addiw	sp,sp,85
    80000230:	00d11113          	slli	sp,sp,0xd
    80000234:	00b10113          	addi	sp,sp,11 # 55000b <_start-0x7faafff5>
    80000238:	00c11113          	slli	sp,sp,0xc
    8000023c:	a0110113          	addi	sp,sp,-1535
    80000240:	00c11113          	slli	sp,sp,0xc
    80000244:	aa010113          	addi	sp,sp,-1376
    80000248:	0020b823          	sd	sp,16(ra)
    8000024c:	0100b703          	ld	a4,16(ra)
    80000250:	005503b7          	lui	t2,0x550
    80000254:	0553839b          	addiw	t2,t2,85
    80000258:	00d39393          	slli	t2,t2,0xd
    8000025c:	00b38393          	addi	t2,t2,11 # 55000b <_start-0x7faafff5>
    80000260:	00c39393          	slli	t2,t2,0xc
    80000264:	a0138393          	addi	t2,t2,-1535
    80000268:	00c39393          	slli	t2,t2,0xc
    8000026c:	aa038393          	addi	t2,t2,-1376
    80000270:	00400193          	li	gp,4
    80000274:	54771863          	bne	a4,t2,800007c4 <fail>

0000000080000278 <test_5>:
    80000278:	00002097          	auipc	ra,0x2
    8000027c:	d8808093          	addi	ra,ra,-632 # 80002000 <begin_signature>
    80000280:	fffd0137          	lui	sp,0xfffd0
    80000284:	0551011b          	addiw	sp,sp,85
    80000288:	01011113          	slli	sp,sp,0x10
    8000028c:	05510113          	addi	sp,sp,85 # fffffffffffd0055 <_end+0xffffffff7ffce005>
    80000290:	01011113          	slli	sp,sp,0x10
    80000294:	05510113          	addi	sp,sp,85
    80000298:	00d11113          	slli	sp,sp,0xd
    8000029c:	00a10113          	addi	sp,sp,10
    800002a0:	0020bc23          	sd	sp,24(ra)
    800002a4:	0180b703          	ld	a4,24(ra)
    800002a8:	fffd03b7          	lui	t2,0xfffd0
    800002ac:	0553839b          	addiw	t2,t2,85
    800002b0:	01039393          	slli	t2,t2,0x10
    800002b4:	05538393          	addi	t2,t2,85 # fffffffffffd0055 <_end+0xffffffff7ffce005>
    800002b8:	01039393          	slli	t2,t2,0x10
    800002bc:	05538393          	addi	t2,t2,85
    800002c0:	00d39393          	slli	t2,t2,0xd
    800002c4:	00a38393          	addi	t2,t2,10
    800002c8:	00500193          	li	gp,5
    800002cc:	4e771c63          	bne	a4,t2,800007c4 <fail>

00000000800002d0 <test_6>:
    800002d0:	00002097          	auipc	ra,0x2
    800002d4:	d6808093          	addi	ra,ra,-664 # 80002038 <tdat8>
    800002d8:	00550137          	lui	sp,0x550
    800002dc:	0551011b          	addiw	sp,sp,85
    800002e0:	01011113          	slli	sp,sp,0x10
    800002e4:	05510113          	addi	sp,sp,85 # 550055 <_start-0x7faaffab>
    800002e8:	01111113          	slli	sp,sp,0x11
    800002ec:	0aa10113          	addi	sp,sp,170
    800002f0:	fe20b423          	sd	sp,-24(ra)
    800002f4:	fe80b703          	ld	a4,-24(ra)
    800002f8:	005503b7          	lui	t2,0x550
    800002fc:	0553839b          	addiw	t2,t2,85
    80000300:	01039393          	slli	t2,t2,0x10
    80000304:	05538393          	addi	t2,t2,85 # 550055 <_start-0x7faaffab>
    80000308:	01139393          	slli	t2,t2,0x11
    8000030c:	0aa38393          	addi	t2,t2,170
    80000310:	00600193          	li	gp,6
    80000314:	4a771863          	bne	a4,t2,800007c4 <fail>

0000000080000318 <test_7>:
    80000318:	00002097          	auipc	ra,0x2
    8000031c:	d2008093          	addi	ra,ra,-736 # 80002038 <tdat8>
    80000320:	ffd50137          	lui	sp,0xffd50
    80000324:	0551011b          	addiw	sp,sp,85
    80000328:	01011113          	slli	sp,sp,0x10
    8000032c:	05510113          	addi	sp,sp,85 # ffffffffffd50055 <_end+0xffffffff7fd4e005>
    80000330:	00d11113          	slli	sp,sp,0xd
    80000334:	00b10113          	addi	sp,sp,11
    80000338:	00c11113          	slli	sp,sp,0xc
    8000033c:	a0010113          	addi	sp,sp,-1536
    80000340:	fe20b823          	sd	sp,-16(ra)
    80000344:	ff00b703          	ld	a4,-16(ra)
    80000348:	ffd503b7          	lui	t2,0xffd50
    8000034c:	0553839b          	addiw	t2,t2,85
    80000350:	01039393          	slli	t2,t2,0x10
    80000354:	05538393          	addi	t2,t2,85 # ffffffffffd50055 <_end+0xffffffff7fd4e005>
    80000358:	00d39393          	slli	t2,t2,0xd
    8000035c:	00b38393          	addi	t2,t2,11
    80000360:	00c39393          	slli	t2,t2,0xc
    80000364:	a0038393          	addi	t2,t2,-1536
    80000368:	00700193          	li	gp,7
    8000036c:	44771c63          	bne	a4,t2,800007c4 <fail>

0000000080000370 <test_8>:
    80000370:	00002097          	auipc	ra,0x2
    80000374:	cc808093          	addi	ra,ra,-824 # 80002038 <tdat8>
    80000378:	00550137          	lui	sp,0x550
    8000037c:	0551011b          	addiw	sp,sp,85
    80000380:	00d11113          	slli	sp,sp,0xd
    80000384:	00b10113          	addi	sp,sp,11 # 55000b <_start-0x7faafff5>
    80000388:	00c11113          	slli	sp,sp,0xc
    8000038c:	a0110113          	addi	sp,sp,-1535
    80000390:	00c11113          	slli	sp,sp,0xc
    80000394:	aa010113          	addi	sp,sp,-1376
    80000398:	fe20bc23          	sd	sp,-8(ra)
    8000039c:	ff80b703          	ld	a4,-8(ra)
    800003a0:	005503b7          	lui	t2,0x550
    800003a4:	0553839b          	addiw	t2,t2,85
    800003a8:	00d39393          	slli	t2,t2,0xd
    800003ac:	00b38393          	addi	t2,t2,11 # 55000b <_start-0x7faafff5>
    800003b0:	00c39393          	slli	t2,t2,0xc
    800003b4:	a0138393          	addi	t2,t2,-1535
    800003b8:	00c39393          	slli	t2,t2,0xc
    800003bc:	aa038393          	addi	t2,t2,-1376
    800003c0:	00800193          	li	gp,8
    800003c4:	40771063          	bne	a4,t2,800007c4 <fail>

00000000800003c8 <test_9>:
    800003c8:	00002097          	auipc	ra,0x2
    800003cc:	c7008093          	addi	ra,ra,-912 # 80002038 <tdat8>
    800003d0:	fffd0137          	lui	sp,0xfffd0
    800003d4:	0551011b          	addiw	sp,sp,85
    800003d8:	01011113          	slli	sp,sp,0x10
    800003dc:	05510113          	addi	sp,sp,85 # fffffffffffd0055 <_end+0xffffffff7ffce005>
    800003e0:	01011113          	slli	sp,sp,0x10
    800003e4:	05510113          	addi	sp,sp,85
    800003e8:	00d11113          	slli	sp,sp,0xd
    800003ec:	00a10113          	addi	sp,sp,10
    800003f0:	0020b023          	sd	sp,0(ra)
    800003f4:	0000b703          	ld	a4,0(ra)
    800003f8:	fffd03b7          	lui	t2,0xfffd0
    800003fc:	0553839b          	addiw	t2,t2,85
    80000400:	01039393          	slli	t2,t2,0x10
    80000404:	05538393          	addi	t2,t2,85 # fffffffffffd0055 <_end+0xffffffff7ffce005>
    80000408:	01039393          	slli	t2,t2,0x10
    8000040c:	05538393          	addi	t2,t2,85
    80000410:	00d39393          	slli	t2,t2,0xd
    80000414:	00a38393          	addi	t2,t2,10
    80000418:	00900193          	li	gp,9
    8000041c:	3a771463          	bne	a4,t2,800007c4 <fail>

0000000080000420 <test_10>:
    80000420:	00002097          	auipc	ra,0x2
    80000424:	c2008093          	addi	ra,ra,-992 # 80002040 <tdat9>
    80000428:	00247137          	lui	sp,0x247
    8000042c:	8ad1011b          	addiw	sp,sp,-1875
    80000430:	00e11113          	slli	sp,sp,0xe
    80000434:	c0910113          	addi	sp,sp,-1015 # 246c09 <_start-0x7fdb93f7>
    80000438:	00d11113          	slli	sp,sp,0xd
    8000043c:	34510113          	addi	sp,sp,837
    80000440:	00c11113          	slli	sp,sp,0xc
    80000444:	67810113          	addi	sp,sp,1656
    80000448:	fe008213          	addi	tp,ra,-32
    8000044c:	02223023          	sd	sp,32(tp) # 20 <_start-0x7fffffe0>
    80000450:	0000b283          	ld	t0,0(ra)
    80000454:	002473b7          	lui	t2,0x247
    80000458:	8ad3839b          	addiw	t2,t2,-1875
    8000045c:	00e39393          	slli	t2,t2,0xe
    80000460:	c0938393          	addi	t2,t2,-1015 # 246c09 <_start-0x7fdb93f7>
    80000464:	00d39393          	slli	t2,t2,0xd
    80000468:	34538393          	addi	t2,t2,837
    8000046c:	00c39393          	slli	t2,t2,0xc
    80000470:	67838393          	addi	t2,t2,1656
    80000474:	00a00193          	li	gp,10
    80000478:	34729663          	bne	t0,t2,800007c4 <fail>

000000008000047c <test_11>:
    8000047c:	00002097          	auipc	ra,0x2
    80000480:	bc408093          	addi	ra,ra,-1084 # 80002040 <tdat9>
    80000484:	00b04137          	lui	sp,0xb04
    80000488:	2611011b          	addiw	sp,sp,609
    8000048c:	00c11113          	slli	sp,sp,0xc
    80000490:	30b10113          	addi	sp,sp,779 # b0430b <_start-0x7f4fbcf5>
    80000494:	00f11113          	slli	sp,sp,0xf
    80000498:	21310113          	addi	sp,sp,531
    8000049c:	00c11113          	slli	sp,sp,0xc
    800004a0:	09810113          	addi	sp,sp,152
    800004a4:	ffd08093          	addi	ra,ra,-3
    800004a8:	0020b5a3          	sd	sp,11(ra)
    800004ac:	00002217          	auipc	tp,0x2
    800004b0:	b9c20213          	addi	tp,tp,-1124 # 80002048 <tdat10>
    800004b4:	00023283          	ld	t0,0(tp) # 0 <_start-0x80000000>
    800004b8:	00b043b7          	lui	t2,0xb04
    800004bc:	2613839b          	addiw	t2,t2,609
    800004c0:	00c39393          	slli	t2,t2,0xc
    800004c4:	30b38393          	addi	t2,t2,779 # b0430b <_start-0x7f4fbcf5>
    800004c8:	00f39393          	slli	t2,t2,0xf
    800004cc:	21338393          	addi	t2,t2,531
    800004d0:	00c39393          	slli	t2,t2,0xc
    800004d4:	09838393          	addi	t2,t2,152
    800004d8:	00b00193          	li	gp,11
    800004dc:	2e729463          	bne	t0,t2,800007c4 <fail>

00000000800004e0 <test_12>:
    800004e0:	00c00193          	li	gp,12
    800004e4:	00000213          	li	tp,0
    800004e8:	0abbd0b7          	lui	ra,0xabbd
    800004ec:	cdd0809b          	addiw	ra,ra,-803
    800004f0:	00002117          	auipc	sp,0x2
    800004f4:	b1010113          	addi	sp,sp,-1264 # 80002000 <begin_signature>
    800004f8:	00113023          	sd	ra,0(sp)
    800004fc:	00013703          	ld	a4,0(sp)
    80000500:	0abbd3b7          	lui	t2,0xabbd
    80000504:	cdd3839b          	addiw	t2,t2,-803
    80000508:	2a771e63          	bne	a4,t2,800007c4 <fail>
    8000050c:	00120213          	addi	tp,tp,1 # 1 <_start-0x7fffffff>
    80000510:	00200293          	li	t0,2
    80000514:	fc521ae3          	bne	tp,t0,800004e8 <test_12+0x8>

0000000080000518 <test_13>:
    80000518:	00d00193          	li	gp,13
    8000051c:	00000213          	li	tp,0
    80000520:	0aabc0b7          	lui	ra,0xaabc
    80000524:	ccd0809b          	addiw	ra,ra,-819
    80000528:	00002117          	auipc	sp,0x2
    8000052c:	ad810113          	addi	sp,sp,-1320 # 80002000 <begin_signature>
    80000530:	00000013          	nop
    80000534:	00113423          	sd	ra,8(sp)
    80000538:	00813703          	ld	a4,8(sp)
    8000053c:	0aabc3b7          	lui	t2,0xaabc
    80000540:	ccd3839b          	addiw	t2,t2,-819
    80000544:	28771063          	bne	a4,t2,800007c4 <fail>
    80000548:	00120213          	addi	tp,tp,1 # 1 <_start-0x7fffffff>
    8000054c:	00200293          	li	t0,2
    80000550:	fc5218e3          	bne	tp,t0,80000520 <test_13+0x8>

0000000080000554 <test_14>:
    80000554:	00e00193          	li	gp,14
    80000558:	00000213          	li	tp,0
    8000055c:	0daac0b7          	lui	ra,0xdaac
    80000560:	bcc0809b          	addiw	ra,ra,-1076
    80000564:	00002117          	auipc	sp,0x2
    80000568:	a9c10113          	addi	sp,sp,-1380 # 80002000 <begin_signature>
    8000056c:	00000013          	nop
    80000570:	00000013          	nop
    80000574:	00113823          	sd	ra,16(sp)
    80000578:	01013703          	ld	a4,16(sp)
    8000057c:	0daac3b7          	lui	t2,0xdaac
    80000580:	bcc3839b          	addiw	t2,t2,-1076
    80000584:	24771063          	bne	a4,t2,800007c4 <fail>
    80000588:	00120213          	addi	tp,tp,1 # 1 <_start-0x7fffffff>
    8000058c:	00200293          	li	t0,2
    80000590:	fc5216e3          	bne	tp,t0,8000055c <test_14+0x8>

0000000080000594 <test_15>:
    80000594:	00f00193          	li	gp,15
    80000598:	00000213          	li	tp,0
    8000059c:	0ddab0b7          	lui	ra,0xddab
    800005a0:	bbc0809b          	addiw	ra,ra,-1092
    800005a4:	00000013          	nop
    800005a8:	00002117          	auipc	sp,0x2
    800005ac:	a5810113          	addi	sp,sp,-1448 # 80002000 <begin_signature>
    800005b0:	00113c23          	sd	ra,24(sp)
    800005b4:	01813703          	ld	a4,24(sp)
    800005b8:	0ddab3b7          	lui	t2,0xddab
    800005bc:	bbc3839b          	addiw	t2,t2,-1092
    800005c0:	20771263          	bne	a4,t2,800007c4 <fail>
    800005c4:	00120213          	addi	tp,tp,1 # 1 <_start-0x7fffffff>
    800005c8:	00200293          	li	t0,2
    800005cc:	fc5218e3          	bne	tp,t0,8000059c <test_15+0x8>

00000000800005d0 <test_16>:
    800005d0:	01000193          	li	gp,16
    800005d4:	00000213          	li	tp,0
    800005d8:	0cddb0b7          	lui	ra,0xcddb
    800005dc:	abb0809b          	addiw	ra,ra,-1349
    800005e0:	00000013          	nop
    800005e4:	00002117          	auipc	sp,0x2
    800005e8:	a1c10113          	addi	sp,sp,-1508 # 80002000 <begin_signature>
    800005ec:	00000013          	nop
    800005f0:	02113023          	sd	ra,32(sp)
    800005f4:	02013703          	ld	a4,32(sp)
    800005f8:	0cddb3b7          	lui	t2,0xcddb
    800005fc:	abb3839b          	addiw	t2,t2,-1349
    80000600:	1c771263          	bne	a4,t2,800007c4 <fail>
    80000604:	00120213          	addi	tp,tp,1 # 1 <_start-0x7fffffff>
    80000608:	00200293          	li	t0,2
    8000060c:	fc5216e3          	bne	tp,t0,800005d8 <test_16+0x8>

0000000080000610 <test_17>:
    80000610:	01100193          	li	gp,17
    80000614:	00000213          	li	tp,0
    80000618:	0ccde0b7          	lui	ra,0xccde
    8000061c:	aab0809b          	addiw	ra,ra,-1365
    80000620:	00000013          	nop
    80000624:	00000013          	nop
    80000628:	00002117          	auipc	sp,0x2
    8000062c:	9d810113          	addi	sp,sp,-1576 # 80002000 <begin_signature>
    80000630:	02113423          	sd	ra,40(sp)
    80000634:	02813703          	ld	a4,40(sp)
    80000638:	0ccde3b7          	lui	t2,0xccde
    8000063c:	aab3839b          	addiw	t2,t2,-1365
    80000640:	18771263          	bne	a4,t2,800007c4 <fail>
    80000644:	00120213          	addi	tp,tp,1 # 1 <_start-0x7fffffff>
    80000648:	00200293          	li	t0,2
    8000064c:	fc5216e3          	bne	tp,t0,80000618 <test_17+0x8>

0000000080000650 <test_18>:
    80000650:	01200193          	li	gp,18
    80000654:	00000213          	li	tp,0
    80000658:	00002117          	auipc	sp,0x2
    8000065c:	9a810113          	addi	sp,sp,-1624 # 80002000 <begin_signature>
    80000660:	001120b7          	lui	ra,0x112
    80000664:	2330809b          	addiw	ra,ra,563
    80000668:	00113023          	sd	ra,0(sp)
    8000066c:	00013703          	ld	a4,0(sp)
    80000670:	001123b7          	lui	t2,0x112
    80000674:	2333839b          	addiw	t2,t2,563
    80000678:	14771663          	bne	a4,t2,800007c4 <fail>
    8000067c:	00120213          	addi	tp,tp,1 # 1 <_start-0x7fffffff>
    80000680:	00200293          	li	t0,2
    80000684:	fc521ae3          	bne	tp,t0,80000658 <test_18+0x8>

0000000080000688 <test_19>:
    80000688:	01300193          	li	gp,19
    8000068c:	00000213          	li	tp,0
    80000690:	00002117          	auipc	sp,0x2
    80000694:	97010113          	addi	sp,sp,-1680 # 80002000 <begin_signature>
    80000698:	300110b7          	lui	ra,0x30011
    8000069c:	2230809b          	addiw	ra,ra,547
    800006a0:	00000013          	nop
    800006a4:	00113423          	sd	ra,8(sp)
    800006a8:	00813703          	ld	a4,8(sp)
    800006ac:	300113b7          	lui	t2,0x30011
    800006b0:	2233839b          	addiw	t2,t2,547
    800006b4:	10771863          	bne	a4,t2,800007c4 <fail>
    800006b8:	00120213          	addi	tp,tp,1 # 1 <_start-0x7fffffff>
    800006bc:	00200293          	li	t0,2
    800006c0:	fc5218e3          	bne	tp,t0,80000690 <test_19+0x8>

00000000800006c4 <test_20>:
    800006c4:	01400193          	li	gp,20
    800006c8:	00000213          	li	tp,0
    800006cc:	00002117          	auipc	sp,0x2
    800006d0:	93410113          	addi	sp,sp,-1740 # 80002000 <begin_signature>
    800006d4:	330010b7          	lui	ra,0x33001
    800006d8:	1220809b          	addiw	ra,ra,290
    800006dc:	00000013          	nop
    800006e0:	00000013          	nop
    800006e4:	00113823          	sd	ra,16(sp)
    800006e8:	01013703          	ld	a4,16(sp)
    800006ec:	330013b7          	lui	t2,0x33001
    800006f0:	1223839b          	addiw	t2,t2,290
    800006f4:	0c771863          	bne	a4,t2,800007c4 <fail>
    800006f8:	00120213          	addi	tp,tp,1 # 1 <_start-0x7fffffff>
    800006fc:	00200293          	li	t0,2
    80000700:	fc5216e3          	bne	tp,t0,800006cc <test_20+0x8>

0000000080000704 <test_21>:
    80000704:	01500193          	li	gp,21
    80000708:	00000213          	li	tp,0
    8000070c:	00002117          	auipc	sp,0x2
    80000710:	8f410113          	addi	sp,sp,-1804 # 80002000 <begin_signature>
    80000714:	00000013          	nop
    80000718:	233000b7          	lui	ra,0x23300
    8000071c:	1120809b          	addiw	ra,ra,274
    80000720:	00113c23          	sd	ra,24(sp)
    80000724:	01813703          	ld	a4,24(sp)
    80000728:	233003b7          	lui	t2,0x23300
    8000072c:	1123839b          	addiw	t2,t2,274
    80000730:	08771a63          	bne	a4,t2,800007c4 <fail>
    80000734:	00120213          	addi	tp,tp,1 # 1 <_start-0x7fffffff>
    80000738:	00200293          	li	t0,2
    8000073c:	fc5218e3          	bne	tp,t0,8000070c <test_21+0x8>

0000000080000740 <test_22>:
    80000740:	01600193          	li	gp,22
    80000744:	00000213          	li	tp,0
    80000748:	00002117          	auipc	sp,0x2
    8000074c:	8b810113          	addi	sp,sp,-1864 # 80002000 <begin_signature>
    80000750:	00000013          	nop
    80000754:	223300b7          	lui	ra,0x22330
    80000758:	0110809b          	addiw	ra,ra,17
    8000075c:	00000013          	nop
    80000760:	02113023          	sd	ra,32(sp)
    80000764:	02013703          	ld	a4,32(sp)
    80000768:	223303b7          	lui	t2,0x22330
    8000076c:	0113839b          	addiw	t2,t2,17
    80000770:	04771a63          	bne	a4,t2,800007c4 <fail>
    80000774:	00120213          	addi	tp,tp,1 # 1 <_start-0x7fffffff>
    80000778:	00200293          	li	t0,2
    8000077c:	fc5216e3          	bne	tp,t0,80000748 <test_22+0x8>

0000000080000780 <test_23>:
    80000780:	01700193          	li	gp,23
    80000784:	00000213          	li	tp,0
    80000788:	00002117          	auipc	sp,0x2
    8000078c:	87810113          	addi	sp,sp,-1928 # 80002000 <begin_signature>
    80000790:	00000013          	nop
    80000794:	00000013          	nop
    80000798:	122330b7          	lui	ra,0x12233
    8000079c:	0010809b          	addiw	ra,ra,1
    800007a0:	02113423          	sd	ra,40(sp)
    800007a4:	02813703          	ld	a4,40(sp)
    800007a8:	122333b7          	lui	t2,0x12233
    800007ac:	0013839b          	addiw	t2,t2,1
    800007b0:	00771a63          	bne	a4,t2,800007c4 <fail>
    800007b4:	00120213          	addi	tp,tp,1 # 1 <_start-0x7fffffff>
    800007b8:	00200293          	li	t0,2
    800007bc:	fc5216e3          	bne	tp,t0,80000788 <test_23+0x8>
    800007c0:	02301063          	bne	zero,gp,800007e0 <pass>

00000000800007c4 <fail>:
    800007c4:	0ff0000f          	fence
    800007c8:	00018063          	beqz	gp,800007c8 <fail+0x4>
    800007cc:	00119193          	slli	gp,gp,0x1
    800007d0:	0011e193          	ori	gp,gp,1
    800007d4:	05d00893          	li	a7,93
    800007d8:	00018513          	mv	a0,gp
    800007dc:	00000073          	ecall

00000000800007e0 <pass>:
    800007e0:	0ff0000f          	fence
    800007e4:	00100193          	li	gp,1
    800007e8:	05d00893          	li	a7,93
    800007ec:	00000513          	li	a0,0
    800007f0:	00000073          	ecall
    800007f4:	c0001073          	unimp
    800007f8:	0000                	unimp
    800007fa:	0000                	unimp
    800007fc:	0000                	unimp
    800007fe:	0000                	unimp
    80000800:	0000                	unimp
    80000802:	0000                	unimp
