
Memory Configuration

Name             Origin             Length             Attributes
FLASH            0x0000000080000000 0x0000000000010000 xr
RAM              0x0000000080010000 0x0000000000008000 xrw
*default*        0x0000000000000000 0xffffffffffffffff

Linker script and memory map


.text           0x0000000080000000     0x94c8
                0x0000000080000000                . = ALIGN (0x4)
 *(.text)
 .text          0x0000000080000000       0xe4 start.o
 .text          0x00000000800000e4     0x13b8 core_list_join.o
                0x00000000800000e4                calc_func
                0x0000000080000210                cmp_complex
                0x0000000080000404                cmp_idx
                0x0000000080000460                copy_info
                0x0000000080000474                core_bench_list
                0x0000000080000cf8                core_list_init
                0x0000000080001120                core_list_insert_new
                0x000000008000118c                core_list_remove
                0x00000000800011b4                core_list_undo_remove
                0x00000000800011d4                core_list_find
                0x0000000080001234                core_list_reverse
                0x0000000080001258                core_list_mergesort
 .text          0x000000008000149c       0x94 core_main.o
                0x000000008000149c                iterate
 .text          0x0000000080001530     0x4208 core_matrix.o
                0x0000000080001530                core_bench_matrix
                0x000000008000307c                matrix_test
                0x00000000800044cc                core_init_matrix
                0x00000000800047fc                matrix_sum
                0x0000000080004a40                matrix_mul_const
                0x0000000080004bd0                matrix_add_const
                0x000000008000507c                matrix_mul_vect
                0x0000000080005288                matrix_mul_matrix
                0x0000000080005520                matrix_mul_matrix_bitextract
 .text          0x0000000080005738       0xf8 core_portme.o
                0x0000000080005738                start_time
                0x0000000080005764                stop_time
                0x0000000080005790                get_time
                0x00000000800057e4                time_in_secs
                0x00000000800057f4                portable_init
                0x0000000080005828                portable_fini
 .text          0x0000000080005830     0x1540 core_state.o
                0x0000000080005830                core_bench_state
                0x000000008000664c                core_init_state
                0x00000000800069f0                core_state_transition
 .text          0x0000000080006d70      0xbd8 core_util.o
                0x0000000080006d70                get_seed_32
                0x0000000080006dd8                crcu8
                0x0000000080006f14                crcu16
                0x0000000080007198                crcu32
                0x00000000800076b4                crc16
                0x0000000080007940                check_data_types
 .text          0x0000000080007948      0x940 stdlib.o
                0x0000000080007948                time
                0x0000000080007954                insn
                0x0000000080007960                malloc
                0x0000000080007990                printf
                0x0000000080007d94                memcpy
                0x0000000080008078                strcpy
                0x0000000080008154                strcmp
 *(.text*)
 .text.unlikely
                0x0000000080008288       0x10 core_list_join.o
 .text.startup  0x0000000080008298      0xbcc core_main.o
                0x0000000080008298                main
 *(.rodata)
 *fill*         0x0000000080008e64        0x4 
 .rodata        0x0000000080008e68       0x80 core_state.o
 .rodata        0x0000000080008ee8       0x18 core_util.o
 .rodata        0x0000000080008f00       0x58 stdlib.o
 *(.rodata*)
 .rodata.str1.8
                0x0000000080008f58      0x436 core_main.o
 *fill*         0x000000008000938e        0x2 
 .rodata.str1.8
                0x0000000080009390       0x2a core_portme.o
 *fill*         0x00000000800093ba        0x6 
 .rodata.str1.8
                0x00000000800093c0       0xdd core_state.o
 *fill*         0x000000008000949d        0x3 
 .rodata.str1.8
                0x00000000800094a0       0x11 stdlib.o
 *(.srodata)
 *(.srodata*)
 *fill*         0x00000000800094b1        0x7 
 .srodata.cst8  0x00000000800094b8       0x10 core_matrix.o
                0x00000000800094c8                . = ALIGN (0x4)
                0x00000000800094c8                _etext = .
                0x00000000800094c8                _sidata = _etext

.rela.dyn       0x00000000800094c8        0x0
 .rela.text     0x00000000800094c8        0x0 start.o

.data           0x0000000080010000       0x30 load address 0x00000000800094c8
                0x0000000080010000                . = ALIGN (0x4)
                0x0000000080010000                _sdata = .
                0x0000000080010000                _ram_start = .
                0x0000000080010000                . = ALIGN (0x4)
 *(.data)
 .data          0x0000000080010000        0x0 start.o
 .data          0x0000000080010000        0x0 core_list_join.o
 .data          0x0000000080010000       0x18 core_main.o
                0x0000000080010000                mem_name
 .data          0x0000000080010018        0x0 core_matrix.o
 .data          0x0000000080010018        0x0 core_portme.o
 .data          0x0000000080010018        0x0 core_state.o
 .data          0x0000000080010018        0x0 core_util.o
 .data          0x0000000080010018        0x0 stdlib.o
 *(.data*)
 *(.sdata)
 .sdata         0x0000000080010018        0xc core_portme.o
                0x0000000080010018                default_num_contexts
                0x000000008001001c                seed4_volatile
                0x0000000080010020                seed3_volatile
 *fill*         0x0000000080010024        0x4 
 .sdata         0x0000000080010028        0x8 stdlib.o
                0x0000000080010028                uart_ptr
 *(.sdata*)
                0x0000000080010030                . = ALIGN (0x4)
                0x0000000080010030                _edata = .

.bss            0x0000000080010030      0x430 load address 0x00000000800094f8
                0x0000000080010030                . = ALIGN (0x4)
                0x0000000080010030                _sbss = .
 *(.bss)
 .bss           0x0000000080010030        0x0 start.o
 .bss           0x0000000080010030        0x0 core_list_join.o
 .bss           0x0000000080010030        0x0 core_main.o
 .bss           0x0000000080010030        0x0 core_matrix.o
 .bss           0x0000000080010030        0x0 core_portme.o
 .bss           0x0000000080010030        0x0 core_state.o
 .bss           0x0000000080010030        0x0 core_util.o
 .bss           0x0000000080010030      0x400 stdlib.o
                0x0000000080010030                heap_memory
 *(.bss*)
 *(.sbss)
 .sbss          0x0000000080010430       0x2c core_portme.o
                0x0000000080010430                stop_instret
                0x0000000080010438                start_instret
                0x0000000080010450                seed5_volatile
                0x0000000080010454                seed2_volatile
                0x0000000080010458                seed1_volatile
 .sbss          0x000000008001045c        0x4 stdlib.o
                0x000000008001045c                heap_memory_used
 *(.sbss*)
 *(COMMON)
                0x0000000080010460                . = ALIGN (0x4)
                0x0000000080010460                _ebss = .

.heap           0x0000000080010460        0x0
                0x0000000080010460                . = ALIGN (0x4)
                0x0000000080010460                _heap_start = .
LOAD start.o
LOAD core_list_join.o
LOAD core_main.o
LOAD core_matrix.o
LOAD core_portme.o
LOAD core_state.o
LOAD core_util.o
LOAD stdlib.o
LOAD /home/andylithia/riscv/lib/gcc/riscv64-unknown-elf/12.2.0/libgcc.a
OUTPUT(coremark.elf elf64-littleriscv)

.riscv.attributes
                0x0000000000000000       0x2a
 .riscv.attributes
                0x0000000000000000       0x1f start.o
 .riscv.attributes
                0x000000000000001f       0x2a core_list_join.o
 .riscv.attributes
                0x0000000000000049       0x2a core_main.o
 .riscv.attributes
                0x0000000000000073       0x2a core_matrix.o
 .riscv.attributes
                0x000000000000009d       0x2a core_portme.o
 .riscv.attributes
                0x00000000000000c7       0x2a core_state.o
 .riscv.attributes
                0x00000000000000f1       0x2a core_util.o
 .riscv.attributes
                0x000000000000011b       0x2a stdlib.o

.comment        0x0000000000000000        0xf
 .comment       0x0000000000000000        0xf core_list_join.o
                                         0x10 (size before relaxing)
 .comment       0x000000000000000f       0x10 core_main.o
 .comment       0x000000000000000f       0x10 core_matrix.o
 .comment       0x000000000000000f       0x10 core_portme.o
 .comment       0x000000000000000f       0x10 core_state.o
 .comment       0x000000000000000f       0x10 core_util.o
 .comment       0x000000000000000f       0x10 stdlib.o
